; Function Attrs: mustprogress uwtable
define void @_ZN17RtpAnalysisDialog8tapResetEPv(ptr noundef %0) #0 align 2 {
  %.not = icmp eq ptr %0, null
  br i1 %.not, label %3, label %2

2:                                                ; preds = %1
  tail call void @_ZN17RtpAnalysisDialog15resetStatisticsEv(ptr noundef nonnull align 8 dereferenceable(328) %0)
  br label %3

3:                                                ; preds = %1, %2
  ret void
}